target datalayout = "e-m:e-p270:32:32-p271:32:32-p272:64:64-i64:64-i128:128-f80:128-n8:16:32:64-S128"
target triple = "x86_64-pc-linux-gnu"

%struct.stbi_io_callbacks = type { ptr, ptr, ptr }
%struct.stbi__context = type { i32, i32, i32, i32, %struct.stbi_io_callbacks, ptr, i32, i32, [128 x i8], i32, ptr, ptr, ptr, ptr }

@_ZL21stbi__stdio_callbacks = internal global %struct.stbi_io_callbacks { ptr @_ZL16stbi__stdio_readPvPci, ptr @_ZL16stbi__stdio_skipPvi, ptr @_ZL15stbi__stdio_eofPv }, align 8

; Function Attrs: mustprogress uwtable
define internal void @_ZL19stbi__refill_bufferP13stbi__context(ptr noundef %0) #3 {
  %2 = alloca ptr, align 8
  %3 = alloca i32, align 4
  store ptr %0, ptr %2, align 8, !tbaa !9
  call void @llvm.lifetime.start.p0(i64 4, ptr %3) #22
  %4 = load ptr, ptr %2, align 8, !tbaa !9
  %5 = getelementptr inbounds nuw %struct.stbi__context, ptr %4, i32 0, i32 4
  %6 = getelementptr inbounds nuw %struct.stbi_io_callbacks, ptr %5, i32 0, i32 0
  %7 = load ptr, ptr %6, align 8, !tbaa !24
  %8 = load ptr, ptr %2, align 8, !tbaa !9
  %9 = getelementptr inbounds nuw %struct.stbi__context, ptr %8, i32 0, i32 5
  %10 = load ptr, ptr %9, align 8, !tbaa !30
  %11 = load ptr, ptr %2, align 8, !tbaa !9
  %12 = getelementptr inbounds nuw %struct.stbi__context, ptr %11, i32 0, i32 8
  %13 = getelementptr inbounds [128 x i8], ptr %12, i64 0, i64 0
  %14 = load ptr, ptr %2, align 8, !tbaa !9
  %15 = getelementptr inbounds nuw %struct.stbi__context, ptr %14, i32 0, i32 7
  %16 = load i32, ptr %15, align 4, !tbaa !31
  %17 = call noundef i32 %7(ptr noundef %10, ptr noundef %13, i32 noundef %16)
  store i32 %17, ptr %3, align 4, !tbaa !10
  %18 = load ptr, ptr %2, align 8, !tbaa !9
  %19 = getelementptr inbounds nuw %struct.stbi__context, ptr %18, i32 0, i32 10
  %20 = load ptr, ptr %19, align 8, !tbaa !19
  %21 = load ptr, ptr %2, align 8, !tbaa !9
  %22 = getelementptr inbounds nuw %struct.stbi__context, ptr %21, i32 0, i32 12
  %23 = load ptr, ptr %22, align 8, !tbaa !27
  %24 = ptrtoint ptr %20 to i64
  %25 = ptrtoint ptr %23 to i64
  %26 = sub i64 %24, %25
  %27 = trunc i64 %26 to i32
  %28 = load ptr, ptr %2, align 8, !tbaa !9
  %29 = getelementptr inbounds nuw %struct.stbi__context, ptr %28, i32 0, i32 9
  %30 = load i32, ptr %29, align 8, !tbaa !26
  %31 = add nsw i32 %30, %27
  store i32 %31, ptr %29, align 8, !tbaa !26
  %32 = load i32, ptr %3, align 4, !tbaa !10
  %33 = icmp eq i32 %32, 0
  br i1 %33, label %34, label %51

34:                                               ; preds = %1
  %35 = load ptr, ptr %2, align 8, !tbaa !9
  %36 = getelementptr inbounds nuw %struct.stbi__context, ptr %35, i32 0, i32 6
  store i32 0, ptr %36, align 8, !tbaa !25
  %37 = load ptr, ptr %2, align 8, !tbaa !9
  %38 = getelementptr inbounds nuw %struct.stbi__context, ptr %37, i32 0, i32 8
  %39 = getelementptr inbounds [128 x i8], ptr %38, i64 0, i64 0
  %40 = load ptr, ptr %2, align 8, !tbaa !9
  %41 = getelementptr inbounds nuw %struct.stbi__context, ptr %40, i32 0, i32 10
  store ptr %39, ptr %41, align 8, !tbaa !19
  %42 = load ptr, ptr %2, align 8, !tbaa !9
  %43 = getelementptr inbounds nuw %struct.stbi__context, ptr %42, i32 0, i32 8
  %44 = getelementptr inbounds [128 x i8], ptr %43, i64 0, i64 0
  %45 = getelementptr inbounds i8, ptr %44, i64 1
  %46 = load ptr, ptr %2, align 8, !tbaa !9
  %47 = getelementptr inbounds nuw %struct.stbi__context, ptr %46, i32 0, i32 11
  store ptr %45, ptr %47, align 8, !tbaa !16
  %48 = load ptr, ptr %2, align 8, !tbaa !9
  %49 = getelementptr inbounds nuw %struct.stbi__context, ptr %48, i32 0, i32 10
  %50 = load ptr, ptr %49, align 8, !tbaa !19
  store i8 0, ptr %50, align 1, !tbaa !57
  br label %65

51:                                               ; preds = %1
  %52 = load ptr, ptr %2, align 8, !tbaa !9
  %53 = getelementptr inbounds nuw %struct.stbi__context, ptr %52, i32 0, i32 8
  %54 = getelementptr inbounds [128 x i8], ptr %53, i64 0, i64 0
  %55 = load ptr, ptr %2, align 8, !tbaa !9
  %56 = getelementptr inbounds nuw %struct.stbi__context, ptr %55, i32 0, i32 10
  store ptr %54, ptr %56, align 8, !tbaa !19
  %57 = load ptr, ptr %2, align 8, !tbaa !9
  %58 = getelementptr inbounds nuw %struct.stbi__context, ptr %57, i32 0, i32 8
  %59 = getelementptr inbounds [128 x i8], ptr %58, i64 0, i64 0
  %60 = load i32, ptr %3, align 4, !tbaa !10
  %61 = sext i32 %60 to i64
  %62 = getelementptr inbounds i8, ptr %59, i64 %61
  %63 = load ptr, ptr %2, align 8, !tbaa !9
  %64 = getelementptr inbounds nuw %struct.stbi__context, ptr %63, i32 0, i32 11
  store ptr %62, ptr %64, align 8, !tbaa !16
  br label %65

65:                                               ; preds = %51, %34
  call void @llvm.lifetime.end.p0(i64 4, ptr %3) #22
  ret void
}

; Function Attrs: mustprogress uwtable
define internal void @_ZL21stbi__start_callbacksP13stbi__contextP17stbi_io_callbacksPv(ptr noundef %0, ptr noundef %1, ptr noundef %2) #3 {
  %4 = alloca ptr, align 8
  %5 = alloca ptr, align 8
  %6 = alloca ptr, align 8
  store ptr %0, ptr %4, align 8, !tbaa !9
  store ptr %1, ptr %5, align 8, !tbaa !9
  store ptr %2, ptr %6, align 8, !tbaa !9
  %7 = load ptr, ptr %5, align 8, !tbaa !9
  %8 = load ptr, ptr %4, align 8, !tbaa !9
  %9 = getelementptr inbounds nuw %struct.stbi__context, ptr %8, i32 0, i32 4
  call void @llvm.memcpy.p0.p0.i64(ptr align 8 %9, ptr align 8 %7, i64 24, i1 false), !tbaa.struct !29
  %10 = load ptr, ptr %6, align 8, !tbaa !9
  %11 = load ptr, ptr %4, align 8, !tbaa !9
  %12 = getelementptr inbounds nuw %struct.stbi__context, ptr %11, i32 0, i32 5
  store ptr %10, ptr %12, align 8, !tbaa !30
  %13 = load ptr, ptr %4, align 8, !tbaa !9
  %14 = getelementptr inbounds nuw %struct.stbi__context, ptr %13, i32 0, i32 7
  store i32 128, ptr %14, align 4, !tbaa !31
  %15 = load ptr, ptr %4, align 8, !tbaa !9
  %16 = getelementptr inbounds nuw %struct.stbi__context, ptr %15, i32 0, i32 6
  store i32 1, ptr %16, align 8, !tbaa !25
  %17 = load ptr, ptr %4, align 8, !tbaa !9
  %18 = getelementptr inbounds nuw %struct.stbi__context, ptr %17, i32 0, i32 9
  store i32 0, ptr %18, align 8, !tbaa !26
  %19 = load ptr, ptr %4, align 8, !tbaa !9
  %20 = getelementptr inbounds nuw %struct.stbi__context, ptr %19, i32 0, i32 8
  %21 = getelementptr inbounds [128 x i8], ptr %20, i64 0, i64 0
  %22 = load ptr, ptr %4, align 8, !tbaa !9
  %23 = getelementptr inbounds nuw %struct.stbi__context, ptr %22, i32 0, i32 12
  store ptr %21, ptr %23, align 8, !tbaa !27
  %24 = load ptr, ptr %4, align 8, !tbaa !9
  %25 = getelementptr inbounds nuw %struct.stbi__context, ptr %24, i32 0, i32 10
  store ptr %21, ptr %25, align 8, !tbaa !19
  %26 = load ptr, ptr %4, align 8, !tbaa !9
  call void @_ZL19stbi__refill_bufferP13stbi__context(ptr noundef %26)
  %27 = load ptr, ptr %4, align 8, !tbaa !9
  %28 = getelementptr inbounds nuw %struct.stbi__context, ptr %27, i32 0, i32 11
  %29 = load ptr, ptr %28, align 8, !tbaa !16
  %30 = load ptr, ptr %4, align 8, !tbaa !9
  %31 = getelementptr inbounds nuw %struct.stbi__context, ptr %30, i32 0, i32 13
  store ptr %29, ptr %31, align 8, !tbaa !28
  ret void
}

; Function Attrs: mustprogress uwtable
define internal void @_ZL16stbi__start_fileP13stbi__contextP8_IO_FILE(ptr noundef %0, ptr noundef %1) #3 {
  %3 = alloca ptr, align 8
  %4 = alloca ptr, align 8
  store ptr %0, ptr %3, align 8, !tbaa !9
  store ptr %1, ptr %4, align 8, !tbaa !14
  %5 = load ptr, ptr %3, align 8, !tbaa !9
  %6 = load ptr, ptr %4, align 8, !tbaa !14
  call void @_ZL21stbi__start_callbacksP13stbi__contextP17stbi_io_callbacksPv(ptr noundef %5, ptr noundef @_ZL21stbi__stdio_callbacks, ptr noundef %6)
  ret void
}

; Function Attrs: mustprogress uwtable
define dso_local ptr @stbi_load_from_file(ptr noundef %0, ptr noundef %1, ptr noundef %2, ptr noundef %3, i32 noundef %4) #3 {
  %6 = alloca ptr, align 8
  %7 = alloca ptr, align 8
  %8 = alloca ptr, align 8
  %9 = alloca ptr, align 8
  %10 = alloca i32, align 4
  %11 = alloca ptr, align 8
  %12 = alloca %struct.stbi__context, align 8
  store ptr %0, ptr %6, align 8, !tbaa !14
  store ptr %1, ptr %7, align 8, !tbaa !12
  store ptr %2, ptr %8, align 8, !tbaa !12
  store ptr %3, ptr %9, align 8, !tbaa !12
  store i32 %4, ptr %10, align 4, !tbaa !10
  call void @llvm.lifetime.start.p0(i64 8, ptr %11) #22
  call void @llvm.lifetime.start.p0(i64 224, ptr %12) #22
  %13 = load ptr, ptr %6, align 8, !tbaa !14
  call void @_ZL16stbi__start_fileP13stbi__contextP8_IO_FILE(ptr noundef %12, ptr noundef %13)
  %14 = load ptr, ptr %7, align 8, !tbaa !12
  %15 = load ptr, ptr %8, align 8, !tbaa !12
  %16 = load ptr, ptr %9, align 8, !tbaa !12
  %17 = load i32, ptr %10, align 4, !tbaa !10
  %18 = call noundef ptr @_ZL31stbi__load_and_postprocess_8bitP13stbi__contextPiS1_S1_i(ptr noundef %12, ptr noundef %14, ptr noundef %15, ptr noundef %16, i32 noundef %17)
  store ptr %18, ptr %11, align 8, !tbaa !4
  %19 = load ptr, ptr %11, align 8, !tbaa !4
  %20 = icmp ne ptr %19, null
  br i1 %20, label %21, label %34

21:                                               ; preds = %5
  %22 = load ptr, ptr %6, align 8, !tbaa !14
  %23 = getelementptr inbounds nuw %struct.stbi__context, ptr %12, i32 0, i32 11
  %24 = load ptr, ptr %23, align 8, !tbaa !16
  %25 = getelementptr inbounds nuw %struct.stbi__context, ptr %12, i32 0, i32 10
  %26 = load ptr, ptr %25, align 8, !tbaa !19
  %27 = ptrtoint ptr %24 to i64
  %28 = ptrtoint ptr %26 to i64
  %29 = sub i64 %27, %28
  %30 = trunc i64 %29 to i32
  %31 = sub nsw i32 0, %30
  %32 = sext i32 %31 to i64
  %33 = call i32 @fseek(ptr noundef %22, i64 noundef %32, i32 noundef 1)
  br label %34

34:                                               ; preds = %21, %5
  %35 = load ptr, ptr %11, align 8, !tbaa !4
  call void @llvm.lifetime.end.p0(i64 224, ptr %12) #22
  call void @llvm.lifetime.end.p0(i64 8, ptr %11) #22
  ret ptr %35
}